target datalayout = "e-m:e-p270:32:32-p271:32:32-p272:64:64-i64:64-i128:128-f80:128-n8:16:32:64-S128"
target triple = "x86_64-pc-linux-gnu"

; Function Attrs: inlinehint nounwind uwtable
define internal void @MEM_write16(ptr noundef %0, i16 noundef zeroext %1) #5 {
  %3 = alloca ptr, align 8
  %4 = alloca i16, align 2
  store ptr %0, ptr %3, align 8, !tbaa !8
  store i16 %1, ptr %4, align 2, !tbaa !24
  %5 = load i16, ptr %4, align 2, !tbaa !24
  %6 = load ptr, ptr %3, align 8, !tbaa !8
  store i16 %5, ptr %6, align 1, !tbaa !24
  ret void
}

; Function Attrs: inlinehint nounwind uwtable
define internal i32 @MEM_isLittleEndian() #5 {
  ret i32 1
}

; Function Attrs: inlinehint nounwind uwtable
define internal void @MEM_writeLE16(ptr noundef %0, i16 noundef zeroext %1) #5 {
  %3 = alloca ptr, align 8
  %4 = alloca i16, align 2
  %5 = alloca ptr, align 8
  store ptr %0, ptr %3, align 8, !tbaa !8
  store i16 %1, ptr %4, align 2, !tbaa !24
  %6 = call i32 @MEM_isLittleEndian()
  %7 = icmp ne i32 %6, 0
  br i1 %7, label %8, label %11

8:                                                ; preds = %2
  %9 = load ptr, ptr %3, align 8, !tbaa !8
  %10 = load i16, ptr %4, align 2, !tbaa !24
  call void @MEM_write16(ptr noundef %9, i16 noundef zeroext %10)
  br label %23

11:                                               ; preds = %2
  call void @llvm.lifetime.start.p0(i64 8, ptr %5) #9
  %12 = load ptr, ptr %3, align 8, !tbaa !8
  store ptr %12, ptr %5, align 8, !tbaa !13
  %13 = load i16, ptr %4, align 2, !tbaa !24
  %14 = trunc i16 %13 to i8
  %15 = load ptr, ptr %5, align 8, !tbaa !13
  %16 = getelementptr inbounds i8, ptr %15, i64 0
  store i8 %14, ptr %16, align 1, !tbaa !15
  %17 = load i16, ptr %4, align 2, !tbaa !24
  %18 = zext i16 %17 to i32
  %19 = ashr i32 %18, 8
  %20 = trunc i32 %19 to i8
  %21 = load ptr, ptr %5, align 8, !tbaa !13
  %22 = getelementptr inbounds i8, ptr %21, i64 1
  store i8 %20, ptr %22, align 1, !tbaa !15
  call void @llvm.lifetime.end.p0(i64 8, ptr %5) #9
  br label %23

23:                                               ; preds = %11, %8
  ret void
}

; Function Attrs: nounwind uwtable
define internal i32 @ERR_isError(i64 noundef %0) #0 {
  %2 = alloca i64, align 8
  store i64 %0, ptr %2, align 8, !tbaa !9
  %3 = load i64, ptr %2, align 8, !tbaa !9
  %4 = icmp ugt i64 %3, -120
  %5 = zext i1 %4 to i32
  ret i32 %5
}

; Function Attrs: nounwind uwtable
define internal i64 @HUF_compress4X_usingCTable_internal(ptr noundef %0, i64 noundef %1, ptr noundef %2, i64 noundef %3, ptr noundef %4, i32 noundef %5) #0 {
  %7 = alloca i64, align 8
  %8 = alloca ptr, align 8
  %9 = alloca i64, align 8
  %10 = alloca ptr, align 8
  %11 = alloca i64, align 8
  %12 = alloca ptr, align 8
  %13 = alloca i32, align 4
  %14 = alloca i64, align 8
  %15 = alloca ptr, align 8
  %16 = alloca ptr, align 8
  %17 = alloca ptr, align 8
  %18 = alloca ptr, align 8
  %19 = alloca ptr, align 8
  %20 = alloca i32, align 4
  %21 = alloca i64, align 8
  %22 = alloca i64, align 8
  %23 = alloca i64, align 8
  %24 = alloca i64, align 8
  store ptr %0, ptr %8, align 8, !tbaa !8
  store i64 %1, ptr %9, align 8, !tbaa !9
  store ptr %2, ptr %10, align 8, !tbaa !8
  store i64 %3, ptr %11, align 8, !tbaa !9
  store ptr %4, ptr %12, align 8, !tbaa !3
  store i32 %5, ptr %13, align 4, !tbaa !11
  call void @llvm.lifetime.start.p0(i64 8, ptr %14) #9
  %25 = load i64, ptr %11, align 8, !tbaa !9
  %26 = add i64 %25, 3
  %27 = udiv i64 %26, 4
  store i64 %27, ptr %14, align 8, !tbaa !9
  call void @llvm.lifetime.start.p0(i64 8, ptr %15) #9
  %28 = load ptr, ptr %10, align 8, !tbaa !8
  store ptr %28, ptr %15, align 8, !tbaa !13
  call void @llvm.lifetime.start.p0(i64 8, ptr %16) #9
  %29 = load ptr, ptr %15, align 8, !tbaa !13
  %30 = load i64, ptr %11, align 8, !tbaa !9
  %31 = getelementptr inbounds nuw i8, ptr %29, i64 %30
  store ptr %31, ptr %16, align 8, !tbaa !13
  call void @llvm.lifetime.start.p0(i64 8, ptr %17) #9
  %32 = load ptr, ptr %8, align 8, !tbaa !8
  store ptr %32, ptr %17, align 8, !tbaa !13
  call void @llvm.lifetime.start.p0(i64 8, ptr %18) #9
  %33 = load ptr, ptr %17, align 8, !tbaa !13
  %34 = load i64, ptr %9, align 8, !tbaa !9
  %35 = getelementptr inbounds nuw i8, ptr %33, i64 %34
  store ptr %35, ptr %18, align 8, !tbaa !13
  call void @llvm.lifetime.start.p0(i64 8, ptr %19) #9
  %36 = load ptr, ptr %17, align 8, !tbaa !13
  store ptr %36, ptr %19, align 8, !tbaa !13
  %37 = load i64, ptr %9, align 8, !tbaa !9
  %38 = icmp ult i64 %37, 17
  br i1 %38, label %39, label %40

39:                                               ; preds = %6
  store i64 0, ptr %7, align 8
  store i32 1, ptr %20, align 4
  br label %208

40:                                               ; preds = %6
  %41 = load i64, ptr %11, align 8, !tbaa !9
  %42 = icmp ult i64 %41, 12
  br i1 %42, label %43, label %44

43:                                               ; preds = %40
  store i64 0, ptr %7, align 8
  store i32 1, ptr %20, align 4
  br label %208

44:                                               ; preds = %40
  %45 = load ptr, ptr %19, align 8, !tbaa !13
  %46 = getelementptr inbounds i8, ptr %45, i64 6
  store ptr %46, ptr %19, align 8, !tbaa !13
  call void @llvm.lifetime.start.p0(i64 8, ptr %21) #9
  %47 = load ptr, ptr %19, align 8, !tbaa !13
  %48 = load ptr, ptr %18, align 8, !tbaa !13
  %49 = load ptr, ptr %19, align 8, !tbaa !13
  %50 = ptrtoint ptr %48 to i64
  %51 = ptrtoint ptr %49 to i64
  %52 = sub i64 %50, %51
  %53 = load ptr, ptr %15, align 8, !tbaa !13
  %54 = load i64, ptr %14, align 8, !tbaa !9
  %55 = load ptr, ptr %12, align 8, !tbaa !3
  %56 = load i32, ptr %13, align 4, !tbaa !11
  %57 = call i64 @HUF_compress1X_usingCTable_internal(ptr noundef %47, i64 noundef %52, ptr noundef %53, i64 noundef %54, ptr noundef %55, i32 noundef %56)
  store i64 %57, ptr %21, align 8, !tbaa !9
  br label %58

58:                                               ; preds = %44
  %59 = load i64, ptr %21, align 8, !tbaa !9
  %60 = call i32 @ERR_isError(i64 noundef %59)
  %61 = icmp ne i32 %60, 0
  br i1 %61, label %62, label %64

62:                                               ; preds = %58
  %63 = load i64, ptr %21, align 8, !tbaa !9
  store i64 %63, ptr %7, align 8
  store i32 1, ptr %20, align 4
  br label %80

64:                                               ; preds = %58
  br label %65

65:                                               ; preds = %64
  br label %66

66:                                               ; preds = %65
  %67 = load i64, ptr %21, align 8, !tbaa !9
  %68 = icmp eq i64 %67, 0
  br i1 %68, label %72, label %69

69:                                               ; preds = %66
  %70 = load i64, ptr %21, align 8, !tbaa !9
  %71 = icmp ugt i64 %70, 65535
  br i1 %71, label %72, label %73

72:                                               ; preds = %69, %66
  store i64 0, ptr %7, align 8
  store i32 1, ptr %20, align 4
  br label %80

73:                                               ; preds = %69
  %74 = load ptr, ptr %17, align 8, !tbaa !13
  %75 = load i64, ptr %21, align 8, !tbaa !9
  %76 = trunc i64 %75 to i16
  call void @MEM_writeLE16(ptr noundef %74, i16 noundef zeroext %76)
  %77 = load i64, ptr %21, align 8, !tbaa !9
  %78 = load ptr, ptr %19, align 8, !tbaa !13
  %79 = getelementptr inbounds nuw i8, ptr %78, i64 %77
  store ptr %79, ptr %19, align 8, !tbaa !13
  store i32 0, ptr %20, align 4
  br label %80

80:                                               ; preds = %73, %72, %62
  call void @llvm.lifetime.end.p0(i64 8, ptr %21) #9
  %81 = load i32, ptr %20, align 4
  switch i32 %81, label %208 [
    i32 0, label %82
  ]

82:                                               ; preds = %80
  %83 = load i64, ptr %14, align 8, !tbaa !9
  %84 = load ptr, ptr %15, align 8, !tbaa !13
  %85 = getelementptr inbounds nuw i8, ptr %84, i64 %83
  store ptr %85, ptr %15, align 8, !tbaa !13
  call void @llvm.lifetime.start.p0(i64 8, ptr %22) #9
  %86 = load ptr, ptr %19, align 8, !tbaa !13
  %87 = load ptr, ptr %18, align 8, !tbaa !13
  %88 = load ptr, ptr %19, align 8, !tbaa !13
  %89 = ptrtoint ptr %87 to i64
  %90 = ptrtoint ptr %88 to i64
  %91 = sub i64 %89, %90
  %92 = load ptr, ptr %15, align 8, !tbaa !13
  %93 = load i64, ptr %14, align 8, !tbaa !9
  %94 = load ptr, ptr %12, align 8, !tbaa !3
  %95 = load i32, ptr %13, align 4, !tbaa !11
  %96 = call i64 @HUF_compress1X_usingCTable_internal(ptr noundef %86, i64 noundef %91, ptr noundef %92, i64 noundef %93, ptr noundef %94, i32 noundef %95)
  store i64 %96, ptr %22, align 8, !tbaa !9
  br label %97

97:                                               ; preds = %82
  %98 = load i64, ptr %22, align 8, !tbaa !9
  %99 = call i32 @ERR_isError(i64 noundef %98)
  %100 = icmp ne i32 %99, 0
  br i1 %100, label %101, label %103

101:                                              ; preds = %97
  %102 = load i64, ptr %22, align 8, !tbaa !9
  store i64 %102, ptr %7, align 8
  store i32 1, ptr %20, align 4
  br label %120

103:                                              ; preds = %97
  br label %104

104:                                              ; preds = %103
  br label %105

105:                                              ; preds = %104
  %106 = load i64, ptr %22, align 8, !tbaa !9
  %107 = icmp eq i64 %106, 0
  br i1 %107, label %111, label %108

108:                                              ; preds = %105
  %109 = load i64, ptr %22, align 8, !tbaa !9
  %110 = icmp ugt i64 %109, 65535
  br i1 %110, label %111, label %112

111:                                              ; preds = %108, %105
  store i64 0, ptr %7, align 8
  store i32 1, ptr %20, align 4
  br label %120

112:                                              ; preds = %108
  %113 = load ptr, ptr %17, align 8, !tbaa !13
  %114 = getelementptr inbounds i8, ptr %113, i64 2
  %115 = load i64, ptr %22, align 8, !tbaa !9
  %116 = trunc i64 %115 to i16
  call void @MEM_writeLE16(ptr noundef %114, i16 noundef zeroext %116)
  %117 = load i64, ptr %22, align 8, !tbaa !9
  %118 = load ptr, ptr %19, align 8, !tbaa !13
  %119 = getelementptr inbounds nuw i8, ptr %118, i64 %117
  store ptr %119, ptr %19, align 8, !tbaa !13
  store i32 0, ptr %20, align 4
  br label %120

120:                                              ; preds = %112, %111, %101
  call void @llvm.lifetime.end.p0(i64 8, ptr %22) #9
  %121 = load i32, ptr %20, align 4
  switch i32 %121, label %208 [
    i32 0, label %122
  ]

122:                                              ; preds = %120
  %123 = load i64, ptr %14, align 8, !tbaa !9
  %124 = load ptr, ptr %15, align 8, !tbaa !13
  %125 = getelementptr inbounds nuw i8, ptr %124, i64 %123
  store ptr %125, ptr %15, align 8, !tbaa !13
  call void @llvm.lifetime.start.p0(i64 8, ptr %23) #9
  %126 = load ptr, ptr %19, align 8, !tbaa !13
  %127 = load ptr, ptr %18, align 8, !tbaa !13
  %128 = load ptr, ptr %19, align 8, !tbaa !13
  %129 = ptrtoint ptr %127 to i64
  %130 = ptrtoint ptr %128 to i64
  %131 = sub i64 %129, %130
  %132 = load ptr, ptr %15, align 8, !tbaa !13
  %133 = load i64, ptr %14, align 8, !tbaa !9
  %134 = load ptr, ptr %12, align 8, !tbaa !3
  %135 = load i32, ptr %13, align 4, !tbaa !11
  %136 = call i64 @HUF_compress1X_usingCTable_internal(ptr noundef %126, i64 noundef %131, ptr noundef %132, i64 noundef %133, ptr noundef %134, i32 noundef %135)
  store i64 %136, ptr %23, align 8, !tbaa !9
  br label %137

137:                                              ; preds = %122
  %138 = load i64, ptr %23, align 8, !tbaa !9
  %139 = call i32 @ERR_isError(i64 noundef %138)
  %140 = icmp ne i32 %139, 0
  br i1 %140, label %141, label %143

141:                                              ; preds = %137
  %142 = load i64, ptr %23, align 8, !tbaa !9
  store i64 %142, ptr %7, align 8
  store i32 1, ptr %20, align 4
  br label %160

143:                                              ; preds = %137
  br label %144

144:                                              ; preds = %143
  br label %145

145:                                              ; preds = %144
  %146 = load i64, ptr %23, align 8, !tbaa !9
  %147 = icmp eq i64 %146, 0
  br i1 %147, label %151, label %148

148:                                              ; preds = %145
  %149 = load i64, ptr %23, align 8, !tbaa !9
  %150 = icmp ugt i64 %149, 65535
  br i1 %150, label %151, label %152

151:                                              ; preds = %148, %145
  store i64 0, ptr %7, align 8
  store i32 1, ptr %20, align 4
  br label %160

152:                                              ; preds = %148
  %153 = load ptr, ptr %17, align 8, !tbaa !13
  %154 = getelementptr inbounds i8, ptr %153, i64 4
  %155 = load i64, ptr %23, align 8, !tbaa !9
  %156 = trunc i64 %155 to i16
  call void @MEM_writeLE16(ptr noundef %154, i16 noundef zeroext %156)
  %157 = load i64, ptr %23, align 8, !tbaa !9
  %158 = load ptr, ptr %19, align 8, !tbaa !13
  %159 = getelementptr inbounds nuw i8, ptr %158, i64 %157
  store ptr %159, ptr %19, align 8, !tbaa !13
  store i32 0, ptr %20, align 4
  br label %160

160:                                              ; preds = %152, %151, %141
  call void @llvm.lifetime.end.p0(i64 8, ptr %23) #9
  %161 = load i32, ptr %20, align 4
  switch i32 %161, label %208 [
    i32 0, label %162
  ]

162:                                              ; preds = %160
  %163 = load i64, ptr %14, align 8, !tbaa !9
  %164 = load ptr, ptr %15, align 8, !tbaa !13
  %165 = getelementptr inbounds nuw i8, ptr %164, i64 %163
  store ptr %165, ptr %15, align 8, !tbaa !13
  call void @llvm.lifetime.start.p0(i64 8, ptr %24) #9
  %166 = load ptr, ptr %19, align 8, !tbaa !13
  %167 = load ptr, ptr %18, align 8, !tbaa !13
  %168 = load ptr, ptr %19, align 8, !tbaa !13
  %169 = ptrtoint ptr %167 to i64
  %170 = ptrtoint ptr %168 to i64
  %171 = sub i64 %169, %170
  %172 = load ptr, ptr %15, align 8, !tbaa !13
  %173 = load ptr, ptr %16, align 8, !tbaa !13
  %174 = load ptr, ptr %15, align 8, !tbaa !13
  %175 = ptrtoint ptr %173 to i64
  %176 = ptrtoint ptr %174 to i64
  %177 = sub i64 %175, %176
  %178 = load ptr, ptr %12, align 8, !tbaa !3
  %179 = load i32, ptr %13, align 4, !tbaa !11
  %180 = call i64 @HUF_compress1X_usingCTable_internal(ptr noundef %166, i64 noundef %171, ptr noundef %172, i64 noundef %177, ptr noundef %178, i32 noundef %179)
  store i64 %180, ptr %24, align 8, !tbaa !9
  br label %181

181:                                              ; preds = %162
  %182 = load i64, ptr %24, align 8, !tbaa !9
  %183 = call i32 @ERR_isError(i64 noundef %182)
  %184 = icmp ne i32 %183, 0
  br i1 %184, label %185, label %187

185:                                              ; preds = %181
  %186 = load i64, ptr %24, align 8, !tbaa !9
  store i64 %186, ptr %7, align 8
  store i32 1, ptr %20, align 4
  br label %200

187:                                              ; preds = %181
  br label %188

188:                                              ; preds = %187
  br label %189

189:                                              ; preds = %188
  %190 = load i64, ptr %24, align 8, !tbaa !9
  %191 = icmp eq i64 %190, 0
  br i1 %191, label %195, label %192

192:                                              ; preds = %189
  %193 = load i64, ptr %24, align 8, !tbaa !9
  %194 = icmp ugt i64 %193, 65535
  br i1 %194, label %195, label %196

195:                                              ; preds = %192, %189
  store i64 0, ptr %7, align 8
  store i32 1, ptr %20, align 4
  br label %200

196:                                              ; preds = %192
  %197 = load i64, ptr %24, align 8, !tbaa !9
  %198 = load ptr, ptr %19, align 8, !tbaa !13
  %199 = getelementptr inbounds nuw i8, ptr %198, i64 %197
  store ptr %199, ptr %19, align 8, !tbaa !13
  store i32 0, ptr %20, align 4
  br label %200

200:                                              ; preds = %196, %195, %185
  call void @llvm.lifetime.end.p0(i64 8, ptr %24) #9
  %201 = load i32, ptr %20, align 4
  switch i32 %201, label %208 [
    i32 0, label %202
  ]

202:                                              ; preds = %200
  %203 = load ptr, ptr %19, align 8, !tbaa !13
  %204 = load ptr, ptr %17, align 8, !tbaa !13
  %205 = ptrtoint ptr %203 to i64
  %206 = ptrtoint ptr %204 to i64
  %207 = sub i64 %205, %206
  store i64 %207, ptr %7, align 8
  store i32 1, ptr %20, align 4
  br label %208

208:                                              ; preds = %202, %200, %160, %120, %80, %43, %39
  call void @llvm.lifetime.end.p0(i64 8, ptr %19) #9
  call void @llvm.lifetime.end.p0(i64 8, ptr %18) #9
  call void @llvm.lifetime.end.p0(i64 8, ptr %17) #9
  call void @llvm.lifetime.end.p0(i64 8, ptr %16) #9
  call void @llvm.lifetime.end.p0(i64 8, ptr %15) #9
  call void @llvm.lifetime.end.p0(i64 8, ptr %14) #9
  %209 = load i64, ptr %7, align 8
  ret i64 %209
}